; Function Attrs: mustprogress nofree norecurse nosync nounwind memory(argmem: readwrite) uwtable
define internal void @_ZN5arrow12_GLOBAL__N_121NewlineBoundaryFinder7FindNthESt17basic_string_viewIcSt11char_traitsIcEES5_lPlS6_(ptr noalias nocapture writeonly sret(%"class.arrow::Status") align 8 %agg.result, ptr nocapture nonnull readnone align 8 %this, i64 %partial.coerce0, ptr nocapture readnone %partial.coerce1, i64 %block.coerce0, ptr nocapture readonly %block.coerce1, i64 noundef %count, ptr nocapture noundef writeonly %out_pos, ptr nocapture noundef writeonly %num_found) unnamed_addr #13 align 2 personality ptr @__gxx_personality_v0 {
entry:
  %cmp5.i.i.not = icmp eq i64 %block.coerce0, 0
  br i1 %cmp5.i.i.not, label %while.end24, label %_ZNSt11char_traitsIcE4findEPKcmRS1_.exit.i.i

_ZNSt11char_traitsIcE4findEPKcmRS1_.exit.i.i:     ; preds = %entry, %for.inc.i.i
  %__pos.addr.07.i.i = phi i64 [ %inc.i.i, %for.inc.i.i ], [ 0, %entry ]
  %arrayidx.i.i = getelementptr inbounds i8, ptr %block.coerce1, i64 %__pos.addr.07.i.i
  %0 = load i8, ptr %arrayidx.i.i, align 1
  switch i8 %0, label %for.inc.i.i [
    i8 13, label %_ZNKSt17basic_string_viewIcSt11char_traitsIcEE13find_first_ofEPKcm.exit
    i8 10, label %_ZNKSt17basic_string_viewIcSt11char_traitsIcEE13find_first_ofEPKcm.exit
  ]

for.inc.i.i:                                      ; preds = %_ZNSt11char_traitsIcE4findEPKcmRS1_.exit.i.i
  %inc.i.i = add nuw i64 %__pos.addr.07.i.i, 1
  %exitcond.not.i.i = icmp eq i64 %inc.i.i, %block.coerce0
  br i1 %exitcond.not.i.i, label %while.end24, label %_ZNSt11char_traitsIcE4findEPKcmRS1_.exit.i.i, !llvm.loop !104

_ZNKSt17basic_string_viewIcSt11char_traitsIcEE13find_first_ofEPKcm.exit: ; preds = %_ZNSt11char_traitsIcE4findEPKcmRS1_.exit.i.i, %_ZNSt11char_traitsIcE4findEPKcmRS1_.exit.i.i
  %cmp7.not35 = icmp eq i64 %__pos.addr.07.i.i, -1
  br i1 %cmp7.not35, label %while.end24, label %while.body8.preheader

while.body8.preheader:                            ; preds = %_ZNKSt17basic_string_viewIcSt11char_traitsIcEE13find_first_ofEPKcm.exit
  %smax = tail call i64 @llvm.smax.i64(i64 %count, i64 1)
  %1 = add nsw i64 %smax, -1
  br label %while.body8

while.body8:                                      ; preds = %while.body8.preheader, %_ZNKSt17basic_string_viewIcSt11char_traitsIcEE13find_first_ofEPKcm.exit27
  %cur_pos.037 = phi i64 [ %__pos.addr.07.i.i19, %_ZNKSt17basic_string_viewIcSt11char_traitsIcEE13find_first_ofEPKcm.exit27 ], [ %__pos.addr.07.i.i, %while.body8.preheader ]
  %found.036 = phi i64 [ %inc19, %_ZNKSt17basic_string_viewIcSt11char_traitsIcEE13find_first_ofEPKcm.exit27 ], [ 0, %while.body8.preheader ]
  %add.ptr.i = getelementptr inbounds i8, ptr %block.coerce1, i64 %cur_pos.037
  %2 = load i8, ptr %add.ptr.i, align 1
  %cmp10 = icmp eq i8 %2, 13
  %add = add nuw i64 %cur_pos.037, 1
  %cmp12 = icmp ult i64 %add, %block.coerce0
  %or.cond = select i1 %cmp10, i1 %cmp12, i1 false
  br i1 %or.cond, label %land.lhs.true13, label %if.end

land.lhs.true13:                                  ; preds = %while.body8
  %add.ptr.i10 = getelementptr inbounds i8, ptr %block.coerce1, i64 %add
  %3 = load i8, ptr %add.ptr.i10, align 1
  %cmp17 = icmp eq i8 %3, 10
  %add18 = add nuw i64 %cur_pos.037, 2
  %spec.select = select i1 %cmp17, i64 %add18, i64 %add
  br label %if.end

if.end:                                           ; preds = %land.lhs.true13, %while.body8
  %cur_pos.1 = phi i64 [ %add, %while.body8 ], [ %spec.select, %land.lhs.true13 ]
  %inc19 = add nuw nsw i64 %found.036, 1
  %exitcond.not = icmp eq i64 %found.036, %1
  br i1 %exitcond.not, label %while.end24, label %if.end22

if.end22:                                         ; preds = %if.end
  %cmp5.i.i13 = icmp ult i64 %cur_pos.1, %block.coerce0
  br i1 %cmp5.i.i13, label %_ZNSt11char_traitsIcE4findEPKcmRS1_.exit.i.i18, label %while.end24

_ZNSt11char_traitsIcE4findEPKcmRS1_.exit.i.i18:   ; preds = %if.end22, %for.inc.i.i24
  %__pos.addr.07.i.i19 = phi i64 [ %inc.i.i25, %for.inc.i.i24 ], [ %cur_pos.1, %if.end22 ]
  %arrayidx.i.i20 = getelementptr inbounds i8, ptr %block.coerce1, i64 %__pos.addr.07.i.i19
  %4 = load i8, ptr %arrayidx.i.i20, align 1
  switch i8 %4, label %for.inc.i.i24 [
    i8 13, label %_ZNKSt17basic_string_viewIcSt11char_traitsIcEE13find_first_ofEPKcm.exit27
    i8 10, label %_ZNKSt17basic_string_viewIcSt11char_traitsIcEE13find_first_ofEPKcm.exit27
  ]

for.inc.i.i24:                                    ; preds = %_ZNSt11char_traitsIcE4findEPKcmRS1_.exit.i.i18
  %inc.i.i25 = add i64 %__pos.addr.07.i.i19, 1
  %exitcond.not.i.i26 = icmp eq i64 %inc.i.i25, %block.coerce0
  br i1 %exitcond.not.i.i26, label %while.end24, label %_ZNSt11char_traitsIcE4findEPKcmRS1_.exit.i.i18, !llvm.loop !104

_ZNKSt17basic_string_viewIcSt11char_traitsIcEE13find_first_ofEPKcm.exit27: ; preds = %_ZNSt11char_traitsIcE4findEPKcmRS1_.exit.i.i18, %_ZNSt11char_traitsIcE4findEPKcmRS1_.exit.i.i18
  %cmp7.not = icmp eq i64 %__pos.addr.07.i.i19, -1
  br i1 %cmp7.not, label %while.end24, label %while.body8, !llvm.loop !114

while.end24:                                      ; preds = %for.inc.i.i, %if.end22, %_ZNKSt17basic_string_viewIcSt11char_traitsIcEE13find_first_ofEPKcm.exit27, %if.end, %for.inc.i.i24, %entry, %_ZNKSt17basic_string_viewIcSt11char_traitsIcEE13find_first_ofEPKcm.exit
  %found.1 = phi i64 [ 0, %_ZNKSt17basic_string_viewIcSt11char_traitsIcEE13find_first_ofEPKcm.exit ], [ 0, %entry ], [ %inc19, %for.inc.i.i24 ], [ %inc19, %if.end22 ], [ %inc19, %_ZNKSt17basic_string_viewIcSt11char_traitsIcEE13find_first_ofEPKcm.exit27 ], [ %smax, %if.end ], [ 0, %for.inc.i.i ]
  %pos.1 = phi i64 [ -1, %_ZNKSt17basic_string_viewIcSt11char_traitsIcEE13find_first_ofEPKcm.exit ], [ -1, %entry ], [ %cur_pos.1, %for.inc.i.i24 ], [ %cur_pos.1, %if.end ], [ %cur_pos.1, %_ZNKSt17basic_string_viewIcSt11char_traitsIcEE13find_first_ofEPKcm.exit27 ], [ %cur_pos.1, %if.end22 ], [ -1, %for.inc.i.i ]
  store i64 %pos.1, ptr %out_pos, align 8
  store i64 %found.1, ptr %num_found, align 8
  store ptr null, ptr %agg.result, align 8, !alias.scope !115
  ret void
}